target datalayout = "e-m:e-p270:32:32-p271:32:32-p272:64:64-i64:64-i128:128-f80:128-n8:16:32:64-S128"
target triple = "x86_64-pc-linux-gnu"

%class.ModulePatchPath = type { ptr, ptr }

@_ZN10PathStringD1Ev = hidden unnamed_addr alias void (ptr), ptr @_ZN10PathStringD2Ev

; Function Attrs: mustprogress nounwind uwtable
define linkonce_odr hidden void @_ZN12CHeapObjBasedlEPv(ptr noundef %0) #1 comdat align 2 {
  %2 = alloca ptr, align 8
  store ptr %0, ptr %2, align 8
  %3 = load ptr, ptr %2, align 8
  call void @_Z8FreeHeapPv(ptr noundef %3)
  ret void
}

; Function Attrs: mustprogress nounwind uwtable
define linkonce_odr hidden void @_ZN8CHeapObjIL8MEMFLAGS19EEdlEPv(ptr noundef %0) #1 comdat align 2 {
  %2 = alloca ptr, align 8
  store ptr %0, ptr %2, align 8
  %3 = load ptr, ptr %2, align 8
  call void @_ZN12CHeapObjBasedlEPv(ptr noundef %3) #13
  ret void
}

; Function Attrs: mustprogress nounwind uwtable
define hidden void @_ZN15ModulePatchPathD2Ev(ptr noundef nonnull align 8 dereferenceable(16) %0) unnamed_addr #1 align 2 {
  %2 = alloca ptr, align 8
  store ptr %0, ptr %2, align 8
  %3 = load ptr, ptr %2, align 8
  %4 = getelementptr inbounds %class.ModulePatchPath, ptr %3, i32 0, i32 0
  %5 = load ptr, ptr %4, align 8
  %6 = icmp ne ptr %5, null
  br i1 %6, label %7, label %11

7:                                                ; preds = %1
  %8 = getelementptr inbounds %class.ModulePatchPath, ptr %3, i32 0, i32 0
  %9 = load ptr, ptr %8, align 8
  call void @_Z8FreeHeapPv(ptr noundef %9)
  %10 = getelementptr inbounds %class.ModulePatchPath, ptr %3, i32 0, i32 0
  store ptr null, ptr %10, align 8
  br label %11

11:                                               ; preds = %7, %1
  %12 = getelementptr inbounds %class.ModulePatchPath, ptr %3, i32 0, i32 1
  %13 = load ptr, ptr %12, align 8
  %14 = icmp ne ptr %13, null
  br i1 %14, label %15, label %22

15:                                               ; preds = %11
  %16 = getelementptr inbounds %class.ModulePatchPath, ptr %3, i32 0, i32 1
  %17 = load ptr, ptr %16, align 8
  %18 = icmp eq ptr %17, null
  br i1 %18, label %20, label %19

19:                                               ; preds = %15
  call void @_ZN10PathStringD1Ev(ptr noundef nonnull align 8 dereferenceable(8) %17) #13
  call void @_ZN8CHeapObjIL8MEMFLAGS19EEdlEPv(ptr noundef %17) #13
  br label %20

20:                                               ; preds = %19, %15
  %21 = getelementptr inbounds %class.ModulePatchPath, ptr %3, i32 0, i32 1
  store ptr null, ptr %21, align 8
  br label %22

22:                                               ; preds = %20, %11
  ret void
}