; Function Attrs: mustprogress nounwind uwtable
define hidden void @_ZN15ModulePatchPathD2Ev(ptr nocapture noundef nonnull align 8 dereferenceable(16) %0) unnamed_addr #0 align 2 {
  %2 = load ptr, ptr %0, align 8
  %.not = icmp eq ptr %2, null
  br i1 %.not, label %4, label %3

3:                                                ; preds = %1
  tail call void @_Z8FreeHeapPv(ptr noundef nonnull %2) #31
  store ptr null, ptr %0, align 8
  br label %4

4:                                                ; preds = %3, %1
  %5 = getelementptr inbounds i8, ptr %0, i64 8
  %6 = load ptr, ptr %5, align 8
  %.not2 = icmp eq ptr %6, null
  br i1 %.not2, label %10, label %7

7:                                                ; preds = %4
  %8 = load ptr, ptr %6, align 8
  %.not.i = icmp eq ptr %8, null
  br i1 %.not.i, label %_ZN10PathStringD2Ev.exit, label %9

9:                                                ; preds = %7
  tail call void @_Z8FreeHeapPv(ptr noundef nonnull %8) #31
  store ptr null, ptr %6, align 8
  br label %_ZN10PathStringD2Ev.exit

_ZN10PathStringD2Ev.exit:                         ; preds = %7, %9
  tail call void @_Z8FreeHeapPv(ptr noundef nonnull %6) #31
  store ptr null, ptr %5, align 8
  br label %10

10:                                               ; preds = %_ZN10PathStringD2Ev.exit, %4
  ret void
}